target datalayout = "e-m:e-p270:32:32-p271:32:32-p272:64:64-i64:64-i128:128-f80:128-n8:16:32:64-S128"
target triple = "x86_64-pc-linux-gnu"

%struct._object = type { %union.anon, ptr }
%union.anon = type { i64 }
%struct._cjk_mod_state = type { i32, i32, ptr, ptr, ptr, ptr }
%struct._multibyte_codec = type { ptr, ptr, ptr, ptr, ptr, ptr, ptr, ptr, ptr, ptr }
%struct.anon = type { i32, i32 }
%struct.dbcs_map = type { ptr, ptr, ptr }

@.str.10 = private unnamed_addr constant [19 x i8] c"multibytecodec.map\00", align 1
@.str.17 = private unnamed_addr constant [11 x i8] c"_codecs_tw\00", align 1
@.str.18 = private unnamed_addr constant [11 x i8] c"__map_big5\00", align 1
@PyExc_ValueError = external global ptr, align 8
@.str.19 = private unnamed_addr constant [28 x i8] c"map data must be a Capsule.\00", align 1

; Function Attrs: alwaysinline nounwind uwtable
define internal i32 @_Py_IsImmortal(ptr noundef %0) #5 {
  %2 = alloca ptr, align 8
  store ptr %0, ptr %2, align 8, !tbaa !17
  %3 = load ptr, ptr %2, align 8, !tbaa !17
  %4 = getelementptr inbounds nuw %struct._object, ptr %3, i32 0, i32 0
  %5 = getelementptr inbounds nuw %struct.anon, ptr %4, i32 0, i32 0
  %6 = load i32, ptr %5, align 8, !tbaa !44
  %7 = icmp slt i32 %6, 0
  %8 = zext i1 %7 to i32
  ret i32 %8
}

; Function Attrs: alwaysinline nounwind uwtable
define internal void @Py_DECREF(ptr noundef %0) #5 {
  %2 = alloca ptr, align 8
  store ptr %0, ptr %2, align 8, !tbaa !17
  %3 = load ptr, ptr %2, align 8, !tbaa !17
  %4 = call i32 @_Py_IsImmortal(ptr noundef %3)
  %5 = icmp ne i32 %4, 0
  br i1 %5, label %6, label %7

6:                                                ; preds = %1
  br label %16

7:                                                ; preds = %1
  %8 = load ptr, ptr %2, align 8, !tbaa !17
  %9 = getelementptr inbounds nuw %struct._object, ptr %8, i32 0, i32 0
  %10 = getelementptr inbounds nuw %struct.anon, ptr %9, i32 0, i32 0
  %11 = load i32, ptr %10, align 8, !tbaa !44
  %12 = add i32 %11, -1
  store i32 %12, ptr %10, align 8, !tbaa !44
  %13 = icmp eq i32 %12, 0
  br i1 %13, label %14, label %16

14:                                               ; preds = %7
  %15 = load ptr, ptr %2, align 8, !tbaa !17
  call void @_Py_Dealloc(ptr noundef %15)
  br label %16

16:                                               ; preds = %6, %14, %7
  ret void
}

; Function Attrs: nounwind uwtable
define internal i32 @importmap(ptr noundef %0, ptr noundef %1, ptr noundef %2, ptr noundef %3) #0 {
  %5 = alloca i32, align 4
  %6 = alloca ptr, align 8
  %7 = alloca ptr, align 8
  %8 = alloca ptr, align 8
  %9 = alloca ptr, align 8
  %10 = alloca ptr, align 8
  %11 = alloca ptr, align 8
  %12 = alloca i32, align 4
  %13 = alloca ptr, align 8
  store ptr %0, ptr %6, align 8, !tbaa !19
  store ptr %1, ptr %7, align 8, !tbaa !19
  store ptr %2, ptr %8, align 8, !tbaa !3
  store ptr %3, ptr %9, align 8, !tbaa !3
  call void @llvm.lifetime.start.p0(i64 8, ptr %10) #9
  call void @llvm.lifetime.start.p0(i64 8, ptr %11) #9
  %14 = load ptr, ptr %6, align 8, !tbaa !19
  %15 = call ptr @PyImport_ImportModule(ptr noundef %14)
  store ptr %15, ptr %11, align 8, !tbaa !17
  %16 = load ptr, ptr %11, align 8, !tbaa !17
  %17 = icmp eq ptr %16, null
  br i1 %17, label %18, label %19

18:                                               ; preds = %4
  store i32 -1, ptr %5, align 4
  store i32 1, ptr %12, align 4
  br label %57

19:                                               ; preds = %4
  %20 = load ptr, ptr %11, align 8, !tbaa !17
  %21 = load ptr, ptr %7, align 8, !tbaa !19
  %22 = call ptr @PyObject_GetAttrString(ptr noundef %20, ptr noundef %21)
  store ptr %22, ptr %10, align 8, !tbaa !17
  %23 = load ptr, ptr %10, align 8, !tbaa !17
  %24 = icmp eq ptr %23, null
  br i1 %24, label %25, label %26

25:                                               ; preds = %19
  br label %55

26:                                               ; preds = %19
  %27 = load ptr, ptr %10, align 8, !tbaa !17
  %28 = call i32 @PyCapsule_IsValid(ptr noundef %27, ptr noundef @.str.10)
  %29 = icmp ne i32 %28, 0
  br i1 %29, label %32, label %30

30:                                               ; preds = %26
  %31 = load ptr, ptr @PyExc_ValueError, align 8, !tbaa !17
  call void @PyErr_SetString(ptr noundef %31, ptr noundef @.str.19)
  br label %55

32:                                               ; preds = %26
  call void @llvm.lifetime.start.p0(i64 8, ptr %13) #9
  %33 = load ptr, ptr %10, align 8, !tbaa !17
  %34 = call ptr @PyCapsule_GetPointer(ptr noundef %33, ptr noundef @.str.10)
  store ptr %34, ptr %13, align 8, !tbaa !46
  %35 = load ptr, ptr %8, align 8, !tbaa !3
  %36 = icmp ne ptr %35, null
  br i1 %36, label %37, label %42

37:                                               ; preds = %32
  %38 = load ptr, ptr %13, align 8, !tbaa !46
  %39 = getelementptr inbounds nuw %struct.dbcs_map, ptr %38, i32 0, i32 1
  %40 = load ptr, ptr %39, align 8, !tbaa !50
  %41 = load ptr, ptr %8, align 8, !tbaa !3
  store ptr %40, ptr %41, align 8, !tbaa !3
  br label %42

42:                                               ; preds = %37, %32
  %43 = load ptr, ptr %9, align 8, !tbaa !3
  %44 = icmp ne ptr %43, null
  br i1 %44, label %45, label %50

45:                                               ; preds = %42
  %46 = load ptr, ptr %13, align 8, !tbaa !46
  %47 = getelementptr inbounds nuw %struct.dbcs_map, ptr %46, i32 0, i32 2
  %48 = load ptr, ptr %47, align 8, !tbaa !51
  %49 = load ptr, ptr %9, align 8, !tbaa !3
  store ptr %48, ptr %49, align 8, !tbaa !3
  br label %50

50:                                               ; preds = %45, %42
  %51 = load ptr, ptr %10, align 8, !tbaa !17
  call void @Py_DECREF(ptr noundef %51)
  call void @llvm.lifetime.end.p0(i64 8, ptr %13) #9
  br label %52

52:                                               ; preds = %50
  br label %53

53:                                               ; preds = %52
  %54 = load ptr, ptr %11, align 8, !tbaa !17
  call void @Py_DECREF(ptr noundef %54)
  store i32 0, ptr %5, align 4
  store i32 1, ptr %12, align 4
  br label %57

55:                                               ; preds = %30, %25
  %56 = load ptr, ptr %11, align 8, !tbaa !17
  call void @Py_DECREF(ptr noundef %56)
  store i32 -1, ptr %5, align 4
  store i32 1, ptr %12, align 4
  br label %57

57:                                               ; preds = %55, %53, %18
  call void @llvm.lifetime.end.p0(i64 8, ptr %11) #9
  call void @llvm.lifetime.end.p0(i64 8, ptr %10) #9
  %58 = load i32, ptr %5, align 4
  ret i32 %58
}

; Function Attrs: nounwind uwtable
define internal i32 @big5hkscs_codec_init(ptr noundef %0) #0 {
  %2 = alloca i32, align 4
  %3 = alloca ptr, align 8
  %4 = alloca ptr, align 8
  %5 = alloca i32, align 4
  store ptr %0, ptr %3, align 8, !tbaa !23
  call void @llvm.lifetime.start.p0(i64 8, ptr %4) #9
  %6 = load ptr, ptr %3, align 8, !tbaa !23
  %7 = getelementptr inbounds nuw %struct._multibyte_codec, ptr %6, i32 0, i32 9
  %8 = load ptr, ptr %7, align 8, !tbaa !63
  store ptr %8, ptr %4, align 8, !tbaa !7
  %9 = load ptr, ptr %4, align 8, !tbaa !7
  %10 = getelementptr inbounds nuw %struct._cjk_mod_state, ptr %9, i32 0, i32 4
  %11 = load ptr, ptr %4, align 8, !tbaa !7
  %12 = getelementptr inbounds nuw %struct._cjk_mod_state, ptr %11, i32 0, i32 5
  %13 = call i32 @importmap(ptr noundef @.str.17, ptr noundef @.str.18, ptr noundef %10, ptr noundef %12)
  %14 = icmp ne i32 %13, 0
  br i1 %14, label %15, label %16

15:                                               ; preds = %1
  store i32 -1, ptr %2, align 4
  store i32 1, ptr %5, align 4
  br label %17

16:                                               ; preds = %1
  store i32 0, ptr %2, align 4
  store i32 1, ptr %5, align 4
  br label %17

17:                                               ; preds = %16, %15
  call void @llvm.lifetime.end.p0(i64 8, ptr %4) #9
  %18 = load i32, ptr %2, align 4
  ret i32 %18
}