; Function Attrs: nounwind uwtable
define internal range(i32 -1, 1) i32 @big5hkscs_codec_init(ptr noundef readonly captures(none) %0) #0 {
  %2 = getelementptr inbounds nuw i8, ptr %0, i64 72
  %3 = load ptr, ptr %2, align 8, !tbaa !43
  %4 = getelementptr inbounds nuw i8, ptr %3, i64 24
  %5 = getelementptr inbounds nuw i8, ptr %3, i64 32
  %6 = tail call ptr @PyImport_ImportModule(ptr noundef nonnull @.str.17) #7
  %7 = icmp eq ptr %6, null
  br i1 %7, label %importmap.exit.thread, label %8

8:                                                ; preds = %1
  %9 = tail call ptr @PyObject_GetAttrString(ptr noundef nonnull %6, ptr noundef nonnull @.str.18) #7
  %10 = icmp eq ptr %9, null
  br i1 %10, label %30, label %11

11:                                               ; preds = %8
  %12 = tail call i32 @PyCapsule_IsValid(ptr noundef nonnull %9, ptr noundef nonnull @.str.10) #7
  %.not.i = icmp eq i32 %12, 0
  br i1 %.not.i, label %13, label %15

13:                                               ; preds = %11
  %14 = load ptr, ptr @PyExc_ValueError, align 8, !tbaa !27
  tail call void @PyErr_SetString(ptr noundef %14, ptr noundef nonnull @.str.19) #7
  br label %30

15:                                               ; preds = %11
  %16 = tail call ptr @PyCapsule_GetPointer(ptr noundef nonnull %9, ptr noundef nonnull @.str.10) #7
  %17 = getelementptr inbounds nuw i8, ptr %16, i64 8
  %18 = load ptr, ptr %17, align 8, !tbaa !48
  store ptr %18, ptr %4, align 8, !tbaa !42
  %19 = getelementptr inbounds nuw i8, ptr %16, i64 16
  %20 = load ptr, ptr %19, align 8, !tbaa !49
  store ptr %20, ptr %5, align 8, !tbaa !42
  %21 = load i32, ptr %9, align 8, !tbaa !36
  %.not.i24.i = icmp sgt i32 %21, -1
  br i1 %.not.i24.i, label %22, label %Py_DECREF.exit25.i

22:                                               ; preds = %15
  %23 = add nsw i32 %21, -1
  store i32 %23, ptr %9, align 8, !tbaa !36
  %24 = icmp eq i32 %23, 0
  br i1 %24, label %25, label %Py_DECREF.exit25.i

25:                                               ; preds = %22
  tail call void @_Py_Dealloc(ptr noundef nonnull %9) #7
  br label %Py_DECREF.exit25.i

Py_DECREF.exit25.i:                               ; preds = %25, %22, %15
  %26 = load i32, ptr %6, align 8, !tbaa !36
  %.not.i22.i = icmp sgt i32 %26, -1
  br i1 %.not.i22.i, label %27, label %importmap.exit.thread

27:                                               ; preds = %Py_DECREF.exit25.i
  %28 = add nsw i32 %26, -1
  store i32 %28, ptr %6, align 8, !tbaa !36
  %29 = icmp eq i32 %28, 0
  br i1 %29, label %importmap.exit.thread.sink.split, label %importmap.exit.thread

30:                                               ; preds = %13, %8
  %31 = load i32, ptr %6, align 8, !tbaa !36
  %.not.i.i = icmp sgt i32 %31, -1
  br i1 %.not.i.i, label %32, label %importmap.exit.thread

32:                                               ; preds = %30
  %33 = add nsw i32 %31, -1
  store i32 %33, ptr %6, align 8, !tbaa !36
  %34 = icmp eq i32 %33, 0
  br i1 %34, label %importmap.exit.thread.sink.split, label %importmap.exit.thread

importmap.exit.thread.sink.split:                 ; preds = %32, %27
  %.ph = phi i32 [ 0, %27 ], [ -1, %32 ]
  tail call void @_Py_Dealloc(ptr noundef nonnull %6) #7
  br label %importmap.exit.thread

importmap.exit.thread:                            ; preds = %importmap.exit.thread.sink.split, %27, %Py_DECREF.exit25.i, %32, %30, %1
  %35 = phi i32 [ -1, %1 ], [ -1, %30 ], [ -1, %32 ], [ 0, %Py_DECREF.exit25.i ], [ 0, %27 ], [ %.ph, %importmap.exit.thread.sink.split ]
  ret i32 %35
}